; Function Attrs: nofree norecurse nosync nounwind memory(read, argmem: readwrite, inaccessiblemem: none) uwtable
define hidden i32 @SDL_GetMouseState_REAL(ptr noundef writeonly captures(address_is_null) %0, ptr noundef writeonly captures(address_is_null) %1) local_unnamed_addr #9 {
  %.not = icmp eq ptr %0, null
  br i1 %.not, label %5, label %3

3:                                                ; preds = %2
  %4 = load float, ptr getelementptr inbounds nuw (i8, ptr @SDL_mouse, i64 136), align 8
  store float %4, ptr %0, align 4
  br label %5

5:                                                ; preds = %3, %2
  %.not8 = icmp eq ptr %1, null
  br i1 %.not8, label %8, label %6

6:                                                ; preds = %5
  %7 = load float, ptr getelementptr inbounds nuw (i8, ptr @SDL_mouse, i64 140), align 4
  store float %7, ptr %1, align 4
  br label %8

8:                                                ; preds = %6, %5
  %9 = load i32, ptr getelementptr inbounds nuw (i8, ptr @SDL_mouse, i64 248), align 8
  %10 = icmp sgt i32 %9, 0
  br i1 %10, label %.lr.ph.i, label %SDL_GetMouseButtonState.exit

.lr.ph.i:                                         ; preds = %8
  %11 = load ptr, ptr getelementptr inbounds nuw (i8, ptr @SDL_mouse, i64 256), align 8
  %wide.trip.count18.i = zext nneg i32 %9 to i64
  br label %.lr.ph.split.us.split.us.i

.lr.ph.split.us.split.us.i:                       ; preds = %.lr.ph.split.us.split.us.i, %.lr.ph.i
  %indvars.iv15.i = phi i64 [ %indvars.iv.next16.i, %.lr.ph.split.us.split.us.i ], [ 0, %.lr.ph.i ]
  %.03.us.us.i = phi i32 [ %14, %.lr.ph.split.us.split.us.i ], [ 0, %.lr.ph.i ]
  %12 = getelementptr inbounds nuw %struct.SDL_MouseInputSource, ptr %11, i64 %indvars.iv15.i, i32 1
  %13 = load i32, ptr %12, align 4
  %14 = or i32 %13, %.03.us.us.i
  %indvars.iv.next16.i = add nuw nsw i64 %indvars.iv15.i, 1
  %exitcond19.not.i = icmp eq i64 %indvars.iv.next16.i, %wide.trip.count18.i
  br i1 %exitcond19.not.i, label %SDL_GetMouseButtonState.exit, label %.lr.ph.split.us.split.us.i, !llvm.loop !11

SDL_GetMouseButtonState.exit:                     ; preds = %.lr.ph.split.us.split.us.i, %8
  %.1.i = phi i32 [ 0, %8 ], [ %14, %.lr.ph.split.us.split.us.i ]
  ret i32 %.1.i
}